target datalayout = "e-m:e-p270:32:32-p271:32:32-p272:64:64-i64:64-i128:128-f80:128-n8:16:32:64-S128"
target triple = "x86_64-pc-linux-gnu"

%struct.ident_t = type { i32, i32, i32, i32, ptr }
%"struct.faiss::RangeSearchResult" = type { ptr, i64, ptr, ptr, ptr, i64 }
%"struct.faiss::BufferList" = type { i64, %"class.std::vector", i64 }
%"class.std::vector" = type { %"struct.std::_Vector_base" }
%"struct.std::_Vector_base" = type { %"struct.std::_Vector_base<faiss::BufferList::Buffer, std::allocator<faiss::BufferList::Buffer>>::_Vector_impl" }
%"struct.std::_Vector_base<faiss::BufferList::Buffer, std::allocator<faiss::BufferList::Buffer>>::_Vector_impl" = type { %"struct.std::_Vector_base<faiss::BufferList::Buffer, std::allocator<faiss::BufferList::Buffer>>::_Vector_impl_data" }
%"struct.std::_Vector_base<faiss::BufferList::Buffer, std::allocator<faiss::BufferList::Buffer>>::_Vector_impl_data" = type { ptr, ptr, ptr }
%"struct.faiss::BufferList::Buffer" = type { ptr, ptr }
%"struct.faiss::RangeQueryResult" = type { i64, i64, ptr }
%"struct.faiss::RangeSearchPartialResult" = type { %"struct.faiss::BufferList", ptr, %"class.std::vector.3" }
%"class.std::vector.3" = type { %"struct.std::_Vector_base.4" }
%"struct.std::_Vector_base.4" = type { %"struct.std::_Vector_base<faiss::RangeQueryResult, std::allocator<faiss::RangeQueryResult>>::_Vector_impl" }
%"struct.std::_Vector_base<faiss::RangeQueryResult, std::allocator<faiss::RangeQueryResult>>::_Vector_impl" = type { %"struct.std::_Vector_base<faiss::RangeQueryResult, std::allocator<faiss::RangeQueryResult>>::_Vector_impl_data" }
%"struct.std::_Vector_base<faiss::RangeQueryResult, std::allocator<faiss::RangeQueryResult>>::_Vector_impl_data" = type { ptr, ptr, ptr }

@1 = private unnamed_addr constant %struct.ident_t { i32 0, i32 34, i32 0, i32 22, ptr @0 }, align 8
@2 = private unnamed_addr constant %struct.ident_t { i32 0, i32 2, i32 0, i32 22, ptr @0 }, align 8
@3 = private unnamed_addr constant %struct.ident_t { i32 0, i32 322, i32 0, i32 22, ptr @0 }, align 8

; Function Attrs: mustprogress nounwind uwtable
define linkonce_odr noundef nonnull align 8 dereferenceable(16) ptr @_ZNSt6vectorIN5faiss10BufferList6BufferESaIS2_EEixEm(ptr noundef nonnull align 8 dereferenceable(24) %0, i64 noundef %1) #1 comdat align 2 {
  %3 = alloca ptr, align 8
  %4 = alloca i64, align 8
  store ptr %0, ptr %3, align 8
  store i64 %1, ptr %4, align 8
  %5 = load ptr, ptr %3, align 8
  %6 = getelementptr inbounds %"struct.std::_Vector_base", ptr %5, i32 0, i32 0
  %7 = getelementptr inbounds %"struct.std::_Vector_base<faiss::BufferList::Buffer, std::allocator<faiss::BufferList::Buffer>>::_Vector_impl_data", ptr %6, i32 0, i32 0
  %8 = load ptr, ptr %7, align 8
  %9 = load i64, ptr %4, align 8
  %10 = getelementptr inbounds %"struct.faiss::BufferList::Buffer", ptr %8, i64 %9
  ret ptr %10
}

; Function Attrs: mustprogress nounwind uwtable
define void @_ZN5faiss10BufferList10copy_rangeEmmPlPf(ptr noundef nonnull align 8 dereferenceable(40) %0, i64 noundef %1, i64 noundef %2, ptr noundef %3, ptr noundef %4) #1 align 2 {
  %6 = alloca ptr, align 8
  %7 = alloca i64, align 8
  %8 = alloca i64, align 8
  %9 = alloca ptr, align 8
  %10 = alloca ptr, align 8
  %11 = alloca i64, align 8
  %12 = alloca i64, align 8
  %13 = alloca %"struct.faiss::BufferList::Buffer", align 8
  store ptr %0, ptr %6, align 8
  store i64 %1, ptr %7, align 8
  store i64 %2, ptr %8, align 8
  store ptr %3, ptr %9, align 8
  store ptr %4, ptr %10, align 8
  %14 = load ptr, ptr %6, align 8
  %15 = load i64, ptr %7, align 8
  %16 = getelementptr inbounds %"struct.faiss::BufferList", ptr %14, i32 0, i32 0
  %17 = load i64, ptr %16, align 8
  %18 = udiv i64 %15, %17
  store i64 %18, ptr %11, align 8
  %19 = load i64, ptr %11, align 8
  %20 = getelementptr inbounds %"struct.faiss::BufferList", ptr %14, i32 0, i32 0
  %21 = load i64, ptr %20, align 8
  %22 = mul i64 %19, %21
  %23 = load i64, ptr %7, align 8
  %24 = sub i64 %23, %22
  store i64 %24, ptr %7, align 8
  br label %25

25:                                               ; preds = %42, %5
  %26 = load i64, ptr %8, align 8
  %27 = icmp ugt i64 %26, 0
  br i1 %27, label %28, label %72

28:                                               ; preds = %25
  %29 = load i64, ptr %7, align 8
  %30 = load i64, ptr %8, align 8
  %31 = add i64 %29, %30
  %32 = getelementptr inbounds %"struct.faiss::BufferList", ptr %14, i32 0, i32 0
  %33 = load i64, ptr %32, align 8
  %34 = icmp ult i64 %31, %33
  br i1 %34, label %35, label %37

35:                                               ; preds = %28
  %36 = load i64, ptr %8, align 8
  br label %42

37:                                               ; preds = %28
  %38 = getelementptr inbounds %"struct.faiss::BufferList", ptr %14, i32 0, i32 0
  %39 = load i64, ptr %38, align 8
  %40 = load i64, ptr %7, align 8
  %41 = sub i64 %39, %40
  br label %42

42:                                               ; preds = %37, %35
  %43 = phi i64 [ %36, %35 ], [ %41, %37 ]
  store i64 %43, ptr %12, align 8
  %44 = getelementptr inbounds %"struct.faiss::BufferList", ptr %14, i32 0, i32 1
  %45 = load i64, ptr %11, align 8
  %46 = call noundef nonnull align 8 dereferenceable(16) ptr @_ZNSt6vectorIN5faiss10BufferList6BufferESaIS2_EEixEm(ptr noundef nonnull align 8 dereferenceable(24) %44, i64 noundef %45) #11
  call void @llvm.memcpy.p0.p0.i64(ptr align 8 %13, ptr align 8 %46, i64 16, i1 false)
  %47 = load ptr, ptr %9, align 8
  %48 = getelementptr inbounds %"struct.faiss::BufferList::Buffer", ptr %13, i32 0, i32 0
  %49 = load ptr, ptr %48, align 8
  %50 = load i64, ptr %7, align 8
  %51 = getelementptr inbounds i64, ptr %49, i64 %50
  %52 = load i64, ptr %12, align 8
  %53 = mul i64 %52, 8
  call void @llvm.memcpy.p0.p0.i64(ptr align 8 %47, ptr align 8 %51, i64 %53, i1 false)
  %54 = load ptr, ptr %10, align 8
  %55 = getelementptr inbounds %"struct.faiss::BufferList::Buffer", ptr %13, i32 0, i32 1
  %56 = load ptr, ptr %55, align 8
  %57 = load i64, ptr %7, align 8
  %58 = getelementptr inbounds float, ptr %56, i64 %57
  %59 = load i64, ptr %12, align 8
  %60 = mul i64 %59, 4
  call void @llvm.memcpy.p0.p0.i64(ptr align 4 %54, ptr align 4 %58, i64 %60, i1 false)
  %61 = load i64, ptr %12, align 8
  %62 = load ptr, ptr %9, align 8
  %63 = getelementptr inbounds i64, ptr %62, i64 %61
  store ptr %63, ptr %9, align 8
  %64 = load i64, ptr %12, align 8
  %65 = load ptr, ptr %10, align 8
  %66 = getelementptr inbounds float, ptr %65, i64 %64
  store ptr %66, ptr %10, align 8
  store i64 0, ptr %7, align 8
  %67 = load i64, ptr %11, align 8
  %68 = add i64 %67, 1
  store i64 %68, ptr %11, align 8
  %69 = load i64, ptr %12, align 8
  %70 = load i64, ptr %8, align 8
  %71 = sub i64 %70, %69
  store i64 %71, ptr %8, align 8
  br label %25, !llvm.loop !8

72:                                               ; preds = %25
  ret void
}

; Function Attrs: mustprogress nounwind uwtable
define linkonce_odr noundef nonnull align 8 dereferenceable(24) ptr @_ZNSt6vectorIN5faiss16RangeQueryResultESaIS1_EEixEm(ptr noundef nonnull align 8 dereferenceable(24) %0, i64 noundef %1) #1 comdat align 2 {
  %3 = alloca ptr, align 8
  %4 = alloca i64, align 8
  store ptr %0, ptr %3, align 8
  store i64 %1, ptr %4, align 8
  %5 = load ptr, ptr %3, align 8
  %6 = getelementptr inbounds %"struct.std::_Vector_base.4", ptr %5, i32 0, i32 0
  %7 = getelementptr inbounds %"struct.std::_Vector_base<faiss::RangeQueryResult, std::allocator<faiss::RangeQueryResult>>::_Vector_impl_data", ptr %6, i32 0, i32 0
  %8 = load ptr, ptr %7, align 8
  %9 = load i64, ptr %4, align 8
  %10 = getelementptr inbounds %"struct.faiss::RangeQueryResult", ptr %8, i64 %9
  ret ptr %10
}

; Function Attrs: mustprogress nounwind uwtable
define linkonce_odr noundef i64 @_ZNKSt6vectorIN5faiss16RangeQueryResultESaIS1_EE4sizeEv(ptr noundef nonnull align 8 dereferenceable(24) %0) #1 comdat align 2 {
  %2 = alloca ptr, align 8
  store ptr %0, ptr %2, align 8
  %3 = load ptr, ptr %2, align 8
  %4 = getelementptr inbounds %"struct.std::_Vector_base.4", ptr %3, i32 0, i32 0
  %5 = getelementptr inbounds %"struct.std::_Vector_base<faiss::RangeQueryResult, std::allocator<faiss::RangeQueryResult>>::_Vector_impl_data", ptr %4, i32 0, i32 1
  %6 = load ptr, ptr %5, align 8
  %7 = getelementptr inbounds %"struct.std::_Vector_base.4", ptr %3, i32 0, i32 0
  %8 = getelementptr inbounds %"struct.std::_Vector_base<faiss::RangeQueryResult, std::allocator<faiss::RangeQueryResult>>::_Vector_impl_data", ptr %7, i32 0, i32 0
  %9 = load ptr, ptr %8, align 8
  %10 = ptrtoint ptr %6 to i64
  %11 = ptrtoint ptr %9 to i64
  %12 = sub i64 %10, %11
  %13 = sdiv exact i64 %12, 24
  ret i64 %13
}

; Function Attrs: mustprogress nounwind uwtable
define void @_ZN5faiss24RangeSearchPartialResult11copy_resultEb(ptr noundef nonnull align 8 dereferenceable(72) %0, i1 noundef zeroext %1) #1 align 2 {
  %3 = alloca ptr, align 8
  %4 = alloca i8, align 1
  %5 = alloca i64, align 8
  %6 = alloca i32, align 4
  %7 = alloca ptr, align 8
  store ptr %0, ptr %3, align 8
  %8 = zext i1 %1 to i8
  store i8 %8, ptr %4, align 1
  %9 = load ptr, ptr %3, align 8
  store i64 0, ptr %5, align 8
  store i32 0, ptr %6, align 4
  br label %10

10:                                               ; preds = %75, %2
  %11 = load i32, ptr %6, align 4
  %12 = sext i32 %11 to i64
  %13 = getelementptr inbounds %"struct.faiss::RangeSearchPartialResult", ptr %9, i32 0, i32 2
  %14 = call noundef i64 @_ZNKSt6vectorIN5faiss16RangeQueryResultESaIS1_EE4sizeEv(ptr noundef nonnull align 8 dereferenceable(24) %13) #11
  %15 = icmp ult i64 %12, %14
  br i1 %15, label %16, label %78

16:                                               ; preds = %10
  %17 = getelementptr inbounds %"struct.faiss::RangeSearchPartialResult", ptr %9, i32 0, i32 2
  %18 = load i32, ptr %6, align 4
  %19 = sext i32 %18 to i64
  %20 = call noundef nonnull align 8 dereferenceable(24) ptr @_ZNSt6vectorIN5faiss16RangeQueryResultESaIS1_EEixEm(ptr noundef nonnull align 8 dereferenceable(24) %17, i64 noundef %19) #11
  store ptr %20, ptr %7, align 8
  %21 = load i64, ptr %5, align 8
  %22 = load ptr, ptr %7, align 8
  %23 = getelementptr inbounds %"struct.faiss::RangeQueryResult", ptr %22, i32 0, i32 1
  %24 = load i64, ptr %23, align 8
  %25 = getelementptr inbounds %"struct.faiss::RangeSearchPartialResult", ptr %9, i32 0, i32 1
  %26 = load ptr, ptr %25, align 8
  %27 = getelementptr inbounds %"struct.faiss::RangeSearchResult", ptr %26, i32 0, i32 3
  %28 = load ptr, ptr %27, align 8
  %29 = getelementptr inbounds %"struct.faiss::RangeSearchPartialResult", ptr %9, i32 0, i32 1
  %30 = load ptr, ptr %29, align 8
  %31 = getelementptr inbounds %"struct.faiss::RangeSearchResult", ptr %30, i32 0, i32 2
  %32 = load ptr, ptr %31, align 8
  %33 = load ptr, ptr %7, align 8
  %34 = getelementptr inbounds %"struct.faiss::RangeQueryResult", ptr %33, i32 0, i32 0
  %35 = load i64, ptr %34, align 8
  %36 = getelementptr inbounds i64, ptr %32, i64 %35
  %37 = load i64, ptr %36, align 8
  %38 = getelementptr inbounds i64, ptr %28, i64 %37
  %39 = getelementptr inbounds %"struct.faiss::RangeSearchPartialResult", ptr %9, i32 0, i32 1
  %40 = load ptr, ptr %39, align 8
  %41 = getelementptr inbounds %"struct.faiss::RangeSearchResult", ptr %40, i32 0, i32 4
  %42 = load ptr, ptr %41, align 8
  %43 = getelementptr inbounds %"struct.faiss::RangeSearchPartialResult", ptr %9, i32 0, i32 1
  %44 = load ptr, ptr %43, align 8
  %45 = getelementptr inbounds %"struct.faiss::RangeSearchResult", ptr %44, i32 0, i32 2
  %46 = load ptr, ptr %45, align 8
  %47 = load ptr, ptr %7, align 8
  %48 = getelementptr inbounds %"struct.faiss::RangeQueryResult", ptr %47, i32 0, i32 0
  %49 = load i64, ptr %48, align 8
  %50 = getelementptr inbounds i64, ptr %46, i64 %49
  %51 = load i64, ptr %50, align 8
  %52 = getelementptr inbounds float, ptr %42, i64 %51
  call void @_ZN5faiss10BufferList10copy_rangeEmmPlPf(ptr noundef nonnull align 8 dereferenceable(40) %9, i64 noundef %21, i64 noundef %24, ptr noundef %38, ptr noundef %52)
  %53 = load i8, ptr %4, align 1
  %54 = trunc i8 %53 to i1
  br i1 %54, label %55, label %69

55:                                               ; preds = %16
  %56 = load ptr, ptr %7, align 8
  %57 = getelementptr inbounds %"struct.faiss::RangeQueryResult", ptr %56, i32 0, i32 1
  %58 = load i64, ptr %57, align 8
  %59 = getelementptr inbounds %"struct.faiss::RangeSearchPartialResult", ptr %9, i32 0, i32 1
  %60 = load ptr, ptr %59, align 8
  %61 = getelementptr inbounds %"struct.faiss::RangeSearchResult", ptr %60, i32 0, i32 2
  %62 = load ptr, ptr %61, align 8
  %63 = load ptr, ptr %7, align 8
  %64 = getelementptr inbounds %"struct.faiss::RangeQueryResult", ptr %63, i32 0, i32 0
  %65 = load i64, ptr %64, align 8
  %66 = getelementptr inbounds i64, ptr %62, i64 %65
  %67 = load i64, ptr %66, align 8
  %68 = add i64 %67, %58
  store i64 %68, ptr %66, align 8
  br label %69

69:                                               ; preds = %55, %16
  %70 = load ptr, ptr %7, align 8
  %71 = getelementptr inbounds %"struct.faiss::RangeQueryResult", ptr %70, i32 0, i32 1
  %72 = load i64, ptr %71, align 8
  %73 = load i64, ptr %5, align 8
  %74 = add i64 %73, %72
  store i64 %74, ptr %5, align 8
  br label %75

75:                                               ; preds = %69
  %76 = load i32, ptr %6, align 4
  %77 = add nsw i32 %76, 1
  store i32 %77, ptr %6, align 4
  br label %10, !llvm.loop !10

78:                                               ; preds = %10
  ret void
}

; Function Attrs: mustprogress nounwind uwtable
define void @_ZN5faiss24RangeSearchPartialResult8set_limsEv(ptr noundef nonnull align 8 dereferenceable(72) %0) #1 align 2 {
  %2 = alloca ptr, align 8
  %3 = alloca i32, align 4
  %4 = alloca ptr, align 8
  store ptr %0, ptr %2, align 8
  %5 = load ptr, ptr %2, align 8
  store i32 0, ptr %3, align 4
  br label %6

6:                                                ; preds = %28, %1
  %7 = load i32, ptr %3, align 4
  %8 = sext i32 %7 to i64
  %9 = getelementptr inbounds %"struct.faiss::RangeSearchPartialResult", ptr %5, i32 0, i32 2
  %10 = call noundef i64 @_ZNKSt6vectorIN5faiss16RangeQueryResultESaIS1_EE4sizeEv(ptr noundef nonnull align 8 dereferenceable(24) %9) #11
  %11 = icmp ult i64 %8, %10
  br i1 %11, label %12, label %31

12:                                               ; preds = %6
  %13 = getelementptr inbounds %"struct.faiss::RangeSearchPartialResult", ptr %5, i32 0, i32 2
  %14 = load i32, ptr %3, align 4
  %15 = sext i32 %14 to i64
  %16 = call noundef nonnull align 8 dereferenceable(24) ptr @_ZNSt6vectorIN5faiss16RangeQueryResultESaIS1_EEixEm(ptr noundef nonnull align 8 dereferenceable(24) %13, i64 noundef %15) #11
  store ptr %16, ptr %4, align 8
  %17 = load ptr, ptr %4, align 8
  %18 = getelementptr inbounds %"struct.faiss::RangeQueryResult", ptr %17, i32 0, i32 1
  %19 = load i64, ptr %18, align 8
  %20 = getelementptr inbounds %"struct.faiss::RangeSearchPartialResult", ptr %5, i32 0, i32 1
  %21 = load ptr, ptr %20, align 8
  %22 = getelementptr inbounds %"struct.faiss::RangeSearchResult", ptr %21, i32 0, i32 2
  %23 = load ptr, ptr %22, align 8
  %24 = load ptr, ptr %4, align 8
  %25 = getelementptr inbounds %"struct.faiss::RangeQueryResult", ptr %24, i32 0, i32 0
  %26 = load i64, ptr %25, align 8
  %27 = getelementptr inbounds i64, ptr %23, i64 %26
  store i64 %19, ptr %27, align 8
  br label %28

28:                                               ; preds = %12
  %29 = load i32, ptr %3, align 4
  %30 = add nsw i32 %29, 1
  store i32 %30, ptr %3, align 4
  br label %6, !llvm.loop !9

31:                                               ; preds = %6
  ret void
}

; Function Attrs: mustprogress uwtable
define void @_ZN5faiss24RangeSearchPartialResult8finalizeEv(ptr noundef nonnull align 8 dereferenceable(72) %0) #0 align 2 personality ptr @__gxx_personality_v0 {
  %2 = alloca ptr, align 8
  %3 = call i32 @__kmpc_global_thread_num(ptr @2)
  store ptr %0, ptr %2, align 8
  %4 = load ptr, ptr %2, align 8
  call void @_ZN5faiss24RangeSearchPartialResult8set_limsEv(ptr noundef nonnull align 8 dereferenceable(72) %4)
  call void @__kmpc_barrier(ptr @1, i32 %3)
  %5 = call i32 @__kmpc_single(ptr @2, i32 %3)
  %6 = icmp ne i32 %5, 0
  br i1 %6, label %7, label %14

7:                                                ; preds = %1
  %8 = getelementptr inbounds %"struct.faiss::RangeSearchPartialResult", ptr %4, i32 0, i32 1
  %9 = load ptr, ptr %8, align 8
  %10 = load ptr, ptr %9, align 8
  %11 = getelementptr inbounds ptr, ptr %10, i64 0
  %12 = load ptr, ptr %11, align 8
  invoke void %12(ptr noundef nonnull align 8 dereferenceable(48) %9)
          to label %13 unwind label %15

13:                                               ; preds = %7
  call void @__kmpc_end_single(ptr @2, i32 %3)
  br label %14

14:                                               ; preds = %13, %1
  call void @__kmpc_barrier(ptr @3, i32 %3)
  call void @__kmpc_barrier(ptr @1, i32 %3)
  call void @_ZN5faiss24RangeSearchPartialResult11copy_resultEb(ptr noundef nonnull align 8 dereferenceable(72) %4, i1 noundef zeroext false)
  ret void

15:                                               ; preds = %7
  %16 = landingpad { ptr, i32 }
          catch ptr null
  %17 = extractvalue { ptr, i32 } %16, 0
  call void @__clang_call_terminate(ptr %17) #17
  unreachable
}