; Function Attrs: mustprogress uwtable
define void @_ZN5faiss24RangeSearchPartialResult8finalizeEv(ptr nocapture noundef nonnull readonly align 8 dereferenceable(72) %0) local_unnamed_addr #0 align 2 personality ptr @__gxx_personality_v0 {
  %2 = tail call i32 @__kmpc_global_thread_num(ptr nonnull @2)
  %3 = getelementptr inbounds i8, ptr %0, i64 48
  %4 = getelementptr inbounds i8, ptr %0, i64 56
  %5 = load ptr, ptr %4, align 8
  %6 = load ptr, ptr %3, align 8
  %.not.i = icmp eq ptr %5, %6
  br i1 %.not.i, label %_ZN5faiss24RangeSearchPartialResult8set_limsEv.exit, label %.lr.ph.i

.lr.ph.i:                                         ; preds = %1
  %7 = getelementptr inbounds i8, ptr %0, i64 40
  br label %8

8:                                                ; preds = %8, %.lr.ph.i
  %indvars.iv.i = phi i64 [ 0, %.lr.ph.i ], [ %indvars.iv.next.i, %8 ]
  %9 = phi ptr [ %6, %.lr.ph.i ], [ %19, %8 ]
  %10 = getelementptr inbounds %"struct.faiss::RangeQueryResult", ptr %9, i64 %indvars.iv.i
  %11 = getelementptr inbounds i8, ptr %10, i64 8
  %12 = load i64, ptr %11, align 8
  %13 = load ptr, ptr %7, align 8
  %14 = getelementptr inbounds i8, ptr %13, i64 16
  %15 = load ptr, ptr %14, align 8
  %16 = load i64, ptr %10, align 8
  %17 = getelementptr inbounds i64, ptr %15, i64 %16
  store i64 %12, ptr %17, align 8
  %indvars.iv.next.i = add nuw nsw i64 %indvars.iv.i, 1
  %18 = load ptr, ptr %4, align 8
  %19 = load ptr, ptr %3, align 8
  %20 = ptrtoint ptr %18 to i64
  %21 = ptrtoint ptr %19 to i64
  %22 = sub i64 %20, %21
  %23 = sdiv exact i64 %22, 24
  %24 = icmp ugt i64 %23, %indvars.iv.next.i
  br i1 %24, label %8, label %_ZN5faiss24RangeSearchPartialResult8set_limsEv.exit, !llvm.loop !9

_ZN5faiss24RangeSearchPartialResult8set_limsEv.exit: ; preds = %8, %1
  tail call void @__kmpc_barrier(ptr nonnull @1, i32 %2)
  %25 = tail call i32 @__kmpc_single(ptr nonnull @2, i32 %2)
  %.not = icmp eq i32 %25, 0
  br i1 %.not, label %32, label %26

26:                                               ; preds = %_ZN5faiss24RangeSearchPartialResult8set_limsEv.exit
  %27 = getelementptr inbounds i8, ptr %0, i64 40
  %28 = load ptr, ptr %27, align 8
  %29 = load ptr, ptr %28, align 8
  %30 = load ptr, ptr %29, align 8
  invoke void %30(ptr noundef nonnull align 8 dereferenceable(48) %28)
          to label %31 unwind label %82

31:                                               ; preds = %26
  tail call void @__kmpc_end_single(ptr nonnull @2, i32 %2)
  br label %32

32:                                               ; preds = %31, %_ZN5faiss24RangeSearchPartialResult8set_limsEv.exit
  tail call void @__kmpc_barrier(ptr nonnull @3, i32 %2)
  tail call void @__kmpc_barrier(ptr nonnull @1, i32 %2)
  %33 = load ptr, ptr %4, align 8
  %34 = load ptr, ptr %3, align 8
  %.not.i1 = icmp eq ptr %33, %34
  br i1 %.not.i1, label %_ZN5faiss24RangeSearchPartialResult11copy_resultEb.exit, label %.lr.ph.i2

.lr.ph.i2:                                        ; preds = %32
  %35 = getelementptr inbounds i8, ptr %0, i64 40
  %36 = getelementptr inbounds i8, ptr %0, i64 8
  br label %37

37:                                               ; preds = %_ZN5faiss10BufferList10copy_rangeEmmPlPf.exit.i, %.lr.ph.i2
  %38 = phi ptr [ %34, %.lr.ph.i2 ], [ %74, %_ZN5faiss10BufferList10copy_rangeEmmPlPf.exit.i ]
  %39 = phi ptr [ %33, %.lr.ph.i2 ], [ %75, %_ZN5faiss10BufferList10copy_rangeEmmPlPf.exit.i ]
  %indvars.iv.i3 = phi i64 [ 0, %.lr.ph.i2 ], [ %indvars.iv.next.i4, %_ZN5faiss10BufferList10copy_rangeEmmPlPf.exit.i ]
  %.015.i = phi i64 [ 0, %.lr.ph.i2 ], [ %76, %_ZN5faiss10BufferList10copy_rangeEmmPlPf.exit.i ]
  %40 = getelementptr inbounds %"struct.faiss::RangeQueryResult", ptr %38, i64 %indvars.iv.i3
  %41 = getelementptr inbounds i8, ptr %40, i64 8
  %42 = load i64, ptr %41, align 8
  %.not27.i.i = icmp eq i64 %42, 0
  br i1 %.not27.i.i, label %_ZN5faiss10BufferList10copy_rangeEmmPlPf.exit.i, label %.lr.ph.i.i

.lr.ph.i.i:                                       ; preds = %37
  %43 = load ptr, ptr %35, align 8
  %44 = getelementptr inbounds i8, ptr %43, i64 32
  %45 = load ptr, ptr %44, align 8
  %46 = getelementptr inbounds i8, ptr %43, i64 16
  %47 = load ptr, ptr %46, align 8
  %48 = load i64, ptr %40, align 8
  %49 = getelementptr inbounds i64, ptr %47, i64 %48
  %50 = load i64, ptr %49, align 8
  %51 = getelementptr inbounds float, ptr %45, i64 %50
  %52 = getelementptr inbounds i8, ptr %43, i64 24
  %53 = load ptr, ptr %52, align 8
  %54 = getelementptr inbounds i64, ptr %53, i64 %50
  %55 = load i64, ptr %0, align 8
  %56 = udiv i64 %.015.i, %55
  %57 = mul i64 %56, %55
  %.recomposed = urem i64 %.015.i, %55
  br label %58

58:                                               ; preds = %58, %.lr.ph.i.i
  %.032.i.i = phi i64 [ %.recomposed, %.lr.ph.i.i ], [ 0, %58 ]
  %.02231.i.i = phi i64 [ %42, %.lr.ph.i.i ], [ %73, %58 ]
  %.02330.i.i = phi ptr [ %54, %.lr.ph.i.i ], [ %70, %58 ]
  %.02429.i.i = phi i64 [ %56, %.lr.ph.i.i ], [ %72, %58 ]
  %.02528.i.i = phi ptr [ %51, %.lr.ph.i.i ], [ %71, %58 ]
  %59 = add i64 %.02231.i.i, %.032.i.i
  %60 = load i64, ptr %0, align 8
  %61 = icmp ult i64 %59, %60
  %62 = sub i64 %60, %.032.i.i
  %63 = select i1 %61, i64 %.02231.i.i, i64 %62
  %64 = load ptr, ptr %36, align 8
  %65 = getelementptr inbounds %"struct.faiss::BufferList::Buffer", ptr %64, i64 %.02429.i.i
  %.sroa.0.0.copyload.i.i = load ptr, ptr %65, align 8
  %.sroa.2.0..sroa_idx.i.i = getelementptr inbounds i8, ptr %65, i64 8
  %.sroa.2.0.copyload.i.i = load ptr, ptr %.sroa.2.0..sroa_idx.i.i, align 8
  %66 = getelementptr inbounds i64, ptr %.sroa.0.0.copyload.i.i, i64 %.032.i.i
  %67 = shl i64 %63, 3
  tail call void @llvm.memcpy.p0.p0.i64(ptr align 8 %.02330.i.i, ptr align 8 %66, i64 %67, i1 false)
  %68 = getelementptr inbounds float, ptr %.sroa.2.0.copyload.i.i, i64 %.032.i.i
  %69 = shl i64 %63, 2
  tail call void @llvm.memcpy.p0.p0.i64(ptr align 4 %.02528.i.i, ptr align 4 %68, i64 %69, i1 false)
  %70 = getelementptr inbounds i64, ptr %.02330.i.i, i64 %63
  %71 = getelementptr inbounds float, ptr %.02528.i.i, i64 %63
  %72 = add i64 %.02429.i.i, 1
  %73 = sub i64 %.02231.i.i, %63
  %.not.i.i = icmp eq i64 %73, 0
  br i1 %.not.i.i, label %_ZN5faiss10BufferList10copy_rangeEmmPlPf.exit.loopexit.i, label %58, !llvm.loop !8

_ZN5faiss10BufferList10copy_rangeEmmPlPf.exit.loopexit.i: ; preds = %58
  %.pre17.pre.i = load i64, ptr %41, align 8
  %.pre = load ptr, ptr %4, align 8
  %.pre5 = load ptr, ptr %3, align 8
  br label %_ZN5faiss10BufferList10copy_rangeEmmPlPf.exit.i

_ZN5faiss10BufferList10copy_rangeEmmPlPf.exit.i:  ; preds = %_ZN5faiss10BufferList10copy_rangeEmmPlPf.exit.loopexit.i, %37
  %74 = phi ptr [ %.pre5, %_ZN5faiss10BufferList10copy_rangeEmmPlPf.exit.loopexit.i ], [ %38, %37 ]
  %75 = phi ptr [ %.pre, %_ZN5faiss10BufferList10copy_rangeEmmPlPf.exit.loopexit.i ], [ %39, %37 ]
  %.pre17.i = phi i64 [ %.pre17.pre.i, %_ZN5faiss10BufferList10copy_rangeEmmPlPf.exit.loopexit.i ], [ 0, %37 ]
  %76 = add i64 %.pre17.i, %.015.i
  %indvars.iv.next.i4 = add nuw nsw i64 %indvars.iv.i3, 1
  %77 = ptrtoint ptr %75 to i64
  %78 = ptrtoint ptr %74 to i64
  %79 = sub i64 %77, %78
  %80 = sdiv exact i64 %79, 24
  %81 = icmp ugt i64 %80, %indvars.iv.next.i4
  br i1 %81, label %37, label %_ZN5faiss24RangeSearchPartialResult11copy_resultEb.exit, !llvm.loop !10

_ZN5faiss24RangeSearchPartialResult11copy_resultEb.exit: ; preds = %_ZN5faiss10BufferList10copy_rangeEmmPlPf.exit.i, %32
  ret void

82:                                               ; preds = %26
  %83 = landingpad { ptr, i32 }
          catch ptr null
  %84 = extractvalue { ptr, i32 } %83, 0
  tail call void @__clang_call_terminate(ptr %84) #24
  unreachable
}